; Function Attrs: mustprogress uwtable
define dso_local noundef zeroext i1 @_ZNK9CGContext14is_nonwritableEPK8Variable(ptr noundef nonnull readonly align 8 dereferenceable(216) %0, ptr noundef %1) local_unnamed_addr #4 align 2 {
  %3 = getelementptr inbounds nuw i8, ptr %0, i64 56
  %4 = load ptr, ptr %3, align 8
  %.not = icmp eq ptr %4, null
  br i1 %.not, label %.loopexit16, label %5

5:                                                ; preds = %2
  %6 = getelementptr inbounds nuw i8, ptr %4, i64 8
  %7 = load ptr, ptr %6, align 8
  %8 = getelementptr inbounds nuw i8, ptr %7, i64 8
  %9 = load ptr, ptr %8, align 8
  %10 = load ptr, ptr %7, align 8
  %.not24 = icmp eq ptr %9, %10
  br i1 %.not24, label %.loopexit16, label %.lr.ph.preheader

.lr.ph.preheader:                                 ; preds = %5
  %11 = ptrtoint ptr %9 to i64
  %12 = ptrtoint ptr %10 to i64
  %13 = sub i64 %11, %12
  %14 = ashr exact i64 %13, 3
  %umax = tail call i64 @llvm.umax.i64(i64 %14, i64 1)
  br label %.lr.ph

15:                                               ; preds = %24
  %16 = add nuw i64 %.01018, 1
  %exitcond.not = icmp eq i64 %16, %umax
  br i1 %exitcond.not, label %.loopexit16, label %.lr.ph, !llvm.loop !10

.lr.ph:                                           ; preds = %.lr.ph.preheader, %15
  %.01018 = phi i64 [ %16, %15 ], [ 0, %.lr.ph.preheader ]
  %17 = load ptr, ptr %3, align 8
  %18 = getelementptr inbounds nuw i8, ptr %17, i64 8
  %19 = load ptr, ptr %18, align 8
  %20 = load ptr, ptr %19, align 8
  %21 = getelementptr inbounds ptr, ptr %20, i64 %.01018
  %22 = load ptr, ptr %21, align 8
  %23 = tail call noundef zeroext i1 @_ZNK8Variable11loose_matchEPKS_(ptr noundef nonnull align 8 dereferenceable(200) %22, ptr noundef %1)
  br i1 %23, label %.loopexit, label %24

24:                                               ; preds = %.lr.ph
  %25 = tail call noundef zeroext i1 @_ZNK8Variable11loose_matchEPKS_(ptr noundef nonnull align 8 dereferenceable(200) %1, ptr noundef nonnull %22)
  br i1 %25, label %.loopexit, label %15

.loopexit16:                                      ; preds = %15, %5, %2
  %26 = getelementptr inbounds nuw i8, ptr %0, i64 88
  %27 = load ptr, ptr %26, align 8
  %28 = getelementptr inbounds nuw i8, ptr %0, i64 72
  %.not1519 = icmp eq ptr %27, %28
  br i1 %.not1519, label %.loopexit, label %.lr.ph21

.lr.ph21:                                         ; preds = %.loopexit16, %32
  %.sroa.012.020 = phi ptr [ %33, %32 ], [ %27, %.loopexit16 ]
  %29 = getelementptr inbounds nuw i8, ptr %.sroa.012.020, i64 32
  %30 = load ptr, ptr %29, align 8
  %31 = tail call noundef zeroext i1 @_ZNK8Variable11loose_matchEPKS_(ptr noundef nonnull align 8 dereferenceable(200) %1, ptr noundef %30)
  br i1 %31, label %.loopexit, label %32

32:                                               ; preds = %.lr.ph21
  %33 = tail call noundef ptr @_ZSt18_Rb_tree_incrementPKSt18_Rb_tree_node_base(ptr noundef nonnull %.sroa.012.020) #24
  %.not15 = icmp eq ptr %33, %28
  br i1 %.not15, label %.loopexit, label %.lr.ph21, !llvm.loop !11

.loopexit:                                        ; preds = %.lr.ph, %24, %.lr.ph21, %32, %.loopexit16
  %.0 = phi i1 [ false, %.loopexit16 ], [ %31, %32 ], [ %31, %.lr.ph21 ], [ true, %24 ], [ true, %.lr.ph ]
  ret i1 %.0
}